target datalayout = "e-m:e-p270:32:32-p271:32:32-p272:64:64-i64:64-i128:128-f80:128-n8:16:32:64-S128"
target triple = "x86_64-unknown-linux-gnu"

%"class.Assimp::MDLImporter" = type <{ %"class.Assimp::BaseImporter", i32, [4 x i8], %"class.std::__cxx11::basic_string", ptr, i32, [4 x i8], ptr, ptr, i32, %"struct.Assimp::MDL::HalfLife::HL1ImportSettings", [2 x i8] }>
%"class.Assimp::BaseImporter" = type { ptr, double, double, %"class.std::__cxx11::basic_string", %"class.std::__exception_ptr::exception_ptr", ptr }
%"class.std::__exception_ptr::exception_ptr" = type { ptr }
%"class.std::__cxx11::basic_string" = type { %"struct.std::__cxx11::basic_string<char>::_Alloc_hider", i64, %union.anon }
%"struct.std::__cxx11::basic_string<char>::_Alloc_hider" = type { ptr }
%union.anon = type { i64, [8 x i8] }
%"struct.Assimp::MDL::HalfLife::HL1ImportSettings" = type { i8, i8, i8, i8, i8, i8, i8, i8, i8, i8 }
%class.aiMatrix4x4t = type { float, float, float, float, float, float, float, float, float, float, float, float, float, float, float, float }
%struct.aiString = type { i32, [1024 x i8] }
%class.aiVector3t = type { float, float, float }
%"struct.Assimp::MDL::Header_MDL7" = type { [4 x i8], i32, i32, i32, i32, i32, i32, i16, i16, i16, i16, i16, i16, i16, i16, i16, i16 }
%"struct.Assimp::MDL::Bone_MDL7" = type <{ i16, [2 x i8], float, float, float, [1 x i8] }>
%"struct.Assimp::MDL::IntBone_MDL7" = type { %struct.aiBone, i64, %class.aiVector3t, %"class.std::vector.7", %"class.std::vector.7", %"class.std::vector.12" }
%struct.aiBone = type { %struct.aiString, i32, ptr, ptr, ptr, %class.aiMatrix4x4t }
%"class.std::vector.7" = type { %"struct.std::_Vector_base.8" }
%"struct.std::_Vector_base.8" = type { %"struct.std::_Vector_base<aiVectorKey, std::allocator<aiVectorKey>>::_Vector_impl" }
%"struct.std::_Vector_base<aiVectorKey, std::allocator<aiVectorKey>>::_Vector_impl" = type { %"struct.std::_Vector_base<aiVectorKey, std::allocator<aiVectorKey>>::_Vector_impl_data" }
%"struct.std::_Vector_base<aiVectorKey, std::allocator<aiVectorKey>>::_Vector_impl_data" = type { ptr, ptr, ptr }
%"class.std::vector.12" = type { %"struct.std::_Vector_base.13" }
%"struct.std::_Vector_base.13" = type { %"struct.std::_Vector_base<aiQuatKey, std::allocator<aiQuatKey>>::_Vector_impl" }
%"struct.std::_Vector_base<aiQuatKey, std::allocator<aiQuatKey>>::_Vector_impl" = type { %"struct.std::_Vector_base<aiQuatKey, std::allocator<aiQuatKey>>::_Vector_impl_data" }
%"struct.std::_Vector_base<aiQuatKey, std::allocator<aiQuatKey>>::_Vector_impl_data" = type { ptr, ptr, ptr }

@.str.69 = private unnamed_addr constant [15 x i8] c"UnnamedBone_%i\00", align 1

; Function Attrs: mustprogress nounwind uwtable
define hidden void @_ZN6Assimp11MDLImporter29CalcAbsBoneMatrices_3DGS_MDL7EPPNS_3MDL12IntBone_MDL7E(ptr noundef nonnull align 8 dereferenceable(158) %this, ptr noundef %apcOutBones) #0 align 2 {
entry:
  %this.addr = alloca ptr, align 8
  %apcOutBones.addr = alloca ptr, align 8
  %pcHeader = alloca ptr, align 8
  %pcBones = alloca ptr, align 8
  %iParent = alloca i16, align 2
  %iIterations = alloca i32, align 4
  %iBone = alloca i32, align 4
  %pcBone = alloca ptr, align 8
  %pcOutBone = alloca ptr, align 8
  %pcParentBone = alloca ptr, align 8
  %iMaxLen = alloca i32, align 4
  %qq = alloca i32, align 4
  store ptr %this, ptr %this.addr, align 8
  store ptr %apcOutBones, ptr %apcOutBones.addr, align 8
  %this1 = load ptr, ptr %this.addr, align 8
  %mBuffer = getelementptr inbounds %"class.Assimp::MDLImporter", ptr %this1, i32 0, i32 4
  %0 = load ptr, ptr %mBuffer, align 8
  store ptr %0, ptr %pcHeader, align 8
  %1 = load ptr, ptr %pcHeader, align 8
  %add.ptr = getelementptr inbounds %"struct.Assimp::MDL::Header_MDL7", ptr %1, i64 1
  store ptr %add.ptr, ptr %pcBones, align 8
  store i16 -1, ptr %iParent, align 2
  store i32 0, ptr %iIterations, align 4
  br label %while.cond

while.cond:                                       ; preds = %for.end78, %entry
  %2 = load i32, ptr %iIterations, align 4
  %inc = add i32 %2, 1
  store i32 %inc, ptr %iIterations, align 4
  %3 = load ptr, ptr %pcHeader, align 8
  %bones_num = getelementptr inbounds %"struct.Assimp::MDL::Header_MDL7", ptr %3, i32 0, i32 2
  %4 = load i32, ptr %bones_num, align 1
  %cmp = icmp ult i32 %2, %4
  br i1 %cmp, label %while.body, label %while.end

while.body:                                       ; preds = %while.cond
  store i32 0, ptr %iBone, align 4
  br label %for.cond

for.cond:                                         ; preds = %for.inc76, %while.body
  %5 = load i32, ptr %iBone, align 4
  %6 = load ptr, ptr %pcHeader, align 8
  %bones_num2 = getelementptr inbounds %"struct.Assimp::MDL::Header_MDL7", ptr %6, i32 0, i32 2
  %7 = load i32, ptr %bones_num2, align 1
  %cmp3 = icmp ult i32 %5, %7
  br i1 %cmp3, label %for.body, label %for.end78

for.body:                                         ; preds = %for.cond
  %8 = load ptr, ptr %pcBones, align 8
  %9 = load i32, ptr %iBone, align 4
  %10 = load ptr, ptr %pcHeader, align 8
  %bone_stc_size = getelementptr inbounds %"struct.Assimp::MDL::Header_MDL7", ptr %10, i32 0, i32 7
  %11 = load i16, ptr %bone_stc_size, align 1
  %conv = zext i16 %11 to i32
  %mul = mul i32 %9, %conv
  %idx.ext = zext i32 %mul to i64
  %add.ptr4 = getelementptr inbounds i8, ptr %8, i64 %idx.ext
  store ptr %add.ptr4, ptr %pcBone, align 8
  %12 = load i16, ptr %iParent, align 2
  %conv5 = zext i16 %12 to i32
  %13 = load ptr, ptr %pcBone, align 8
  %parent_index = getelementptr inbounds %"struct.Assimp::MDL::Bone_MDL7", ptr %13, i32 0, i32 0
  %14 = load i16, ptr %parent_index, align 1
  %conv6 = zext i16 %14 to i32
  %cmp7 = icmp eq i32 %conv5, %conv6
  br i1 %cmp7, label %if.then, label %if.end75

if.then:                                          ; preds = %for.body
  %15 = load ptr, ptr %apcOutBones.addr, align 8
  %16 = load i32, ptr %iBone, align 4
  %idxprom = zext i32 %16 to i64
  %arrayidx = getelementptr inbounds ptr, ptr %15, i64 %idxprom
  %17 = load ptr, ptr %arrayidx, align 8
  store ptr %17, ptr %pcOutBone, align 8
  %18 = load ptr, ptr %pcBone, align 8
  %parent_index8 = getelementptr inbounds %"struct.Assimp::MDL::Bone_MDL7", ptr %18, i32 0, i32 0
  %19 = load i16, ptr %parent_index8, align 1
  %conv9 = zext i16 %19 to i64
  %20 = load ptr, ptr %pcOutBone, align 8
  %iParent10 = getelementptr inbounds %"struct.Assimp::MDL::IntBone_MDL7", ptr %20, i32 0, i32 1
  store i64 %conv9, ptr %iParent10, align 8
  %21 = load i16, ptr %iParent, align 2
  %conv11 = zext i16 %21 to i32
  %cmp12 = icmp ne i32 65535, %conv11
  br i1 %cmp12, label %if.then13, label %if.end

if.then13:                                        ; preds = %if.then
  %22 = load ptr, ptr %apcOutBones.addr, align 8
  %23 = load i16, ptr %iParent, align 2
  %idxprom14 = zext i16 %23 to i64
  %arrayidx15 = getelementptr inbounds ptr, ptr %22, i64 %idxprom14
  %24 = load ptr, ptr %arrayidx15, align 8
  store ptr %24, ptr %pcParentBone, align 8
  %25 = load ptr, ptr %pcParentBone, align 8
  %vPosition = getelementptr inbounds %"struct.Assimp::MDL::IntBone_MDL7", ptr %25, i32 0, i32 2
  %x = getelementptr inbounds %class.aiVector3t, ptr %vPosition, i32 0, i32 0
  %26 = load float, ptr %x, align 8
  %fneg = fneg float %26
  %27 = load ptr, ptr %pcOutBone, align 8
  %mOffsetMatrix = getelementptr inbounds %struct.aiBone, ptr %27, i32 0, i32 5
  %a4 = getelementptr inbounds %class.aiMatrix4x4t, ptr %mOffsetMatrix, i32 0, i32 3
  store float %fneg, ptr %a4, align 4
  %28 = load ptr, ptr %pcParentBone, align 8
  %vPosition16 = getelementptr inbounds %"struct.Assimp::MDL::IntBone_MDL7", ptr %28, i32 0, i32 2
  %y = getelementptr inbounds %class.aiVector3t, ptr %vPosition16, i32 0, i32 1
  %29 = load float, ptr %y, align 4
  %fneg17 = fneg float %29
  %30 = load ptr, ptr %pcOutBone, align 8
  %mOffsetMatrix18 = getelementptr inbounds %struct.aiBone, ptr %30, i32 0, i32 5
  %b4 = getelementptr inbounds %class.aiMatrix4x4t, ptr %mOffsetMatrix18, i32 0, i32 7
  store float %fneg17, ptr %b4, align 4
  %31 = load ptr, ptr %pcParentBone, align 8
  %vPosition19 = getelementptr inbounds %"struct.Assimp::MDL::IntBone_MDL7", ptr %31, i32 0, i32 2
  %z = getelementptr inbounds %class.aiVector3t, ptr %vPosition19, i32 0, i32 2
  %32 = load float, ptr %z, align 8
  %fneg20 = fneg float %32
  %33 = load ptr, ptr %pcOutBone, align 8
  %mOffsetMatrix21 = getelementptr inbounds %struct.aiBone, ptr %33, i32 0, i32 5
  %c4 = getelementptr inbounds %class.aiMatrix4x4t, ptr %mOffsetMatrix21, i32 0, i32 11
  store float %fneg20, ptr %c4, align 4
  br label %if.end

if.end:                                           ; preds = %if.then13, %if.then
  %34 = load ptr, ptr %pcBone, align 8
  %x22 = getelementptr inbounds %"struct.Assimp::MDL::Bone_MDL7", ptr %34, i32 0, i32 2
  %35 = load float, ptr %x22, align 1
  %36 = load ptr, ptr %pcOutBone, align 8
  %vPosition23 = getelementptr inbounds %"struct.Assimp::MDL::IntBone_MDL7", ptr %36, i32 0, i32 2
  %x24 = getelementptr inbounds %class.aiVector3t, ptr %vPosition23, i32 0, i32 0
  store float %35, ptr %x24, align 8
  %37 = load ptr, ptr %pcBone, align 8
  %y25 = getelementptr inbounds %"struct.Assimp::MDL::Bone_MDL7", ptr %37, i32 0, i32 3
  %38 = load float, ptr %y25, align 1
  %39 = load ptr, ptr %pcOutBone, align 8
  %vPosition26 = getelementptr inbounds %"struct.Assimp::MDL::IntBone_MDL7", ptr %39, i32 0, i32 2
  %y27 = getelementptr inbounds %class.aiVector3t, ptr %vPosition26, i32 0, i32 1
  store float %38, ptr %y27, align 4
  %40 = load ptr, ptr %pcBone, align 8
  %z28 = getelementptr inbounds %"struct.Assimp::MDL::Bone_MDL7", ptr %40, i32 0, i32 4
  %41 = load float, ptr %z28, align 1
  %42 = load ptr, ptr %pcOutBone, align 8
  %vPosition29 = getelementptr inbounds %"struct.Assimp::MDL::IntBone_MDL7", ptr %42, i32 0, i32 2
  %z30 = getelementptr inbounds %class.aiVector3t, ptr %vPosition29, i32 0, i32 2
  store float %41, ptr %z30, align 8
  %43 = load ptr, ptr %pcBone, align 8
  %x31 = getelementptr inbounds %"struct.Assimp::MDL::Bone_MDL7", ptr %43, i32 0, i32 2
  %44 = load float, ptr %x31, align 1
  %45 = load ptr, ptr %pcOutBone, align 8
  %mOffsetMatrix32 = getelementptr inbounds %struct.aiBone, ptr %45, i32 0, i32 5
  %a433 = getelementptr inbounds %class.aiMatrix4x4t, ptr %mOffsetMatrix32, i32 0, i32 3
  %46 = load float, ptr %a433, align 4
  %sub = fsub float %46, %44
  store float %sub, ptr %a433, align 4
  %47 = load ptr, ptr %pcBone, align 8
  %y34 = getelementptr inbounds %"struct.Assimp::MDL::Bone_MDL7", ptr %47, i32 0, i32 3
  %48 = load float, ptr %y34, align 1
  %49 = load ptr, ptr %pcOutBone, align 8
  %mOffsetMatrix35 = getelementptr inbounds %struct.aiBone, ptr %49, i32 0, i32 5
  %b436 = getelementptr inbounds %class.aiMatrix4x4t, ptr %mOffsetMatrix35, i32 0, i32 7
  %50 = load float, ptr %b436, align 4
  %sub37 = fsub float %50, %48
  store float %sub37, ptr %b436, align 4
  %51 = load ptr, ptr %pcBone, align 8
  %z38 = getelementptr inbounds %"struct.Assimp::MDL::Bone_MDL7", ptr %51, i32 0, i32 4
  %52 = load float, ptr %z38, align 1
  %53 = load ptr, ptr %pcOutBone, align 8
  %mOffsetMatrix39 = getelementptr inbounds %struct.aiBone, ptr %53, i32 0, i32 5
  %c440 = getelementptr inbounds %class.aiMatrix4x4t, ptr %mOffsetMatrix39, i32 0, i32 11
  %54 = load float, ptr %c440, align 4
  %sub41 = fsub float %54, %52
  store float %sub41, ptr %c440, align 4
  %55 = load ptr, ptr %pcHeader, align 8
  %bone_stc_size42 = getelementptr inbounds %"struct.Assimp::MDL::Header_MDL7", ptr %55, i32 0, i32 7
  %56 = load i16, ptr %bone_stc_size42, align 1
  %conv43 = zext i16 %56 to i32
  %cmp44 = icmp eq i32 16, %conv43
  br i1 %cmp44, label %if.then45, label %if.else

if.then45:                                        ; preds = %if.end
  %57 = load ptr, ptr %pcOutBone, align 8
  %mName = getelementptr inbounds %struct.aiBone, ptr %57, i32 0, i32 0
  %data = getelementptr inbounds %struct.aiString, ptr %mName, i32 0, i32 1
  %arraydecay = getelementptr inbounds [1024 x i8], ptr %data, i64 0, i64 0
  %58 = load i32, ptr %iBone, align 4
  %call = call i32 (ptr, i64, ptr, ...) @snprintf(ptr noundef %arraydecay, i64 noundef 1024, ptr noundef @.str.69, i32 noundef %58) #16
  %59 = load ptr, ptr %pcOutBone, align 8
  %mName46 = getelementptr inbounds %struct.aiBone, ptr %59, i32 0, i32 0
  %length = getelementptr inbounds %struct.aiString, ptr %mName46, i32 0, i32 0
  store i32 %call, ptr %length, align 8
  br label %if.end74

if.else:                                          ; preds = %if.end
  %60 = load ptr, ptr %pcHeader, align 8
  %bone_stc_size47 = getelementptr inbounds %"struct.Assimp::MDL::Header_MDL7", ptr %60, i32 0, i32 7
  %61 = load i16, ptr %bone_stc_size47, align 1
  %conv48 = zext i16 %61 to i32
  %sub49 = sub nsw i32 %conv48, 16
  store i32 %sub49, ptr %iMaxLen, align 4
  store i32 0, ptr %qq, align 4
  br label %for.cond50

for.cond50:                                       ; preds = %for.inc, %if.else
  %62 = load i32, ptr %qq, align 4
  %63 = load i32, ptr %iMaxLen, align 4
  %cmp51 = icmp ult i32 %62, %63
  br i1 %cmp51, label %for.body52, label %for.end

for.body52:                                       ; preds = %for.cond50
  %64 = load ptr, ptr %pcBone, align 8
  %name = getelementptr inbounds %"struct.Assimp::MDL::Bone_MDL7", ptr %64, i32 0, i32 5
  %65 = load i32, ptr %qq, align 4
  %idxprom53 = zext i32 %65 to i64
  %arrayidx54 = getelementptr inbounds [1 x i8], ptr %name, i64 0, i64 %idxprom53
  %66 = load i8, ptr %arrayidx54, align 1
  %tobool = icmp ne i8 %66, 0
  br i1 %tobool, label %if.end56, label %if.then55

if.then55:                                        ; preds = %for.body52
  %67 = load i32, ptr %qq, align 4
  store i32 %67, ptr %iMaxLen, align 4
  br label %for.end

if.end56:                                         ; preds = %for.body52
  br label %for.inc

for.inc:                                          ; preds = %if.end56
  %68 = load i32, ptr %qq, align 4
  %inc57 = add i32 %68, 1
  store i32 %inc57, ptr %qq, align 4
  br label %for.cond50, !llvm.loop !25

for.end:                                          ; preds = %if.then55, %for.cond50
  %69 = load i32, ptr %iMaxLen, align 4
  %70 = load ptr, ptr %pcOutBone, align 8
  %mName58 = getelementptr inbounds %struct.aiBone, ptr %70, i32 0, i32 0
  %length59 = getelementptr inbounds %struct.aiString, ptr %mName58, i32 0, i32 0
  store i32 %69, ptr %length59, align 8
  %71 = load ptr, ptr %pcOutBone, align 8
  %mName60 = getelementptr inbounds %struct.aiBone, ptr %71, i32 0, i32 0
  %data61 = getelementptr inbounds %struct.aiString, ptr %mName60, i32 0, i32 1
  %arraydecay62 = getelementptr inbounds [1024 x i8], ptr %data61, i64 0, i64 0
  %72 = load ptr, ptr %pcBone, align 8
  %name63 = getelementptr inbounds %"struct.Assimp::MDL::Bone_MDL7", ptr %72, i32 0, i32 5
  %arraydecay64 = getelementptr inbounds [1 x i8], ptr %name63, i64 0, i64 0
  %73 = load ptr, ptr %pcOutBone, align 8
  %mName65 = getelementptr inbounds %struct.aiBone, ptr %73, i32 0, i32 0
  %length66 = getelementptr inbounds %struct.aiString, ptr %mName65, i32 0, i32 0
  %74 = load i32, ptr %length66, align 8
  %conv67 = zext i32 %74 to i64
  call void @llvm.memcpy.p0.p0.i64(ptr align 4 %arraydecay62, ptr align 1 %arraydecay64, i64 %conv67, i1 false)
  %75 = load ptr, ptr %pcOutBone, align 8
  %mName68 = getelementptr inbounds %struct.aiBone, ptr %75, i32 0, i32 0
  %data69 = getelementptr inbounds %struct.aiString, ptr %mName68, i32 0, i32 1
  %76 = load ptr, ptr %pcOutBone, align 8
  %mName70 = getelementptr inbounds %struct.aiBone, ptr %76, i32 0, i32 0
  %length71 = getelementptr inbounds %struct.aiString, ptr %mName70, i32 0, i32 0
  %77 = load i32, ptr %length71, align 8
  %idxprom72 = zext i32 %77 to i64
  %arrayidx73 = getelementptr inbounds [1024 x i8], ptr %data69, i64 0, i64 %idxprom72
  store i8 0, ptr %arrayidx73, align 1
  br label %if.end74

if.end74:                                         ; preds = %for.end, %if.then45
  br label %if.end75

if.end75:                                         ; preds = %if.end74, %for.body
  br label %for.inc76

for.inc76:                                        ; preds = %if.end75
  %78 = load i32, ptr %iBone, align 4
  %inc77 = add i32 %78, 1
  store i32 %inc77, ptr %iBone, align 4
  br label %for.cond, !llvm.loop !26

for.end78:                                        ; preds = %for.cond
  %79 = load i16, ptr %iParent, align 2
  %inc79 = add i16 %79, 1
  store i16 %inc79, ptr %iParent, align 2
  br label %while.cond, !llvm.loop !27

while.end:                                        ; preds = %while.cond
  ret void
}