; Function Attrs: mustprogress nofree nounwind uwtable
define hidden void @_ZN6Assimp11MDLImporter29CalcAbsBoneMatrices_3DGS_MDL7EPPNS_3MDL12IntBone_MDL7E(ptr nocapture noundef nonnull readonly align 8 dereferenceable(158) %this, ptr nocapture noundef readonly %apcOutBones) local_unnamed_addr #15 align 2 {
entry:
  %mBuffer = getelementptr inbounds i8, ptr %this, i64 112
  %0 = load ptr, ptr %mBuffer, align 8
  %add.ptr = getelementptr inbounds i8, ptr %0, i64 48
  %bones_num = getelementptr inbounds i8, ptr %0, i64 8
  %1 = load i32, ptr %bones_num, align 1
  %cmp50.not = icmp eq i32 %1, 0
  br i1 %cmp50.not, label %while.end, label %for.cond.preheader.preheader

for.cond.preheader.preheader:                     ; preds = %entry
  %bone_stc_size = getelementptr inbounds i8, ptr %0, i64 28
  br label %for.body.lr.ph

for.body.lr.ph:                                   ; preds = %for.end78, %for.cond.preheader.preheader
  %inc52 = phi i32 [ %inc, %for.end78 ], [ 1, %for.cond.preheader.preheader ]
  %iParent.051 = phi i16 [ %inc79, %for.end78 ], [ -1, %for.cond.preheader.preheader ]
  %cmp12.not = icmp eq i16 %iParent.051, -1
  %idxprom14 = zext i16 %iParent.051 to i64
  %arrayidx15 = getelementptr inbounds ptr, ptr %apcOutBones, i64 %idxprom14
  br label %for.body

for.body:                                         ; preds = %for.body.lr.ph, %for.inc76
  %indvars.iv55 = phi i64 [ 0, %for.body.lr.ph ], [ %indvars.iv.next56, %for.inc76 ]
  %2 = load i16, ptr %bone_stc_size, align 1
  %conv = zext i16 %2 to i64
  %3 = trunc i64 %indvars.iv55 to i32
  %mul = mul nuw nsw i64 %indvars.iv55, %conv
  %idx.ext = and i64 %mul, 4294967295
  %add.ptr4 = getelementptr inbounds i8, ptr %add.ptr, i64 %idx.ext
  %4 = load i16, ptr %add.ptr4, align 1
  %cmp7 = icmp eq i16 %iParent.051, %4
  br i1 %cmp7, label %if.then, label %for.inc76

if.then:                                          ; preds = %for.body
  %arrayidx = getelementptr inbounds ptr, ptr %apcOutBones, i64 %indvars.iv55
  %5 = load ptr, ptr %arrayidx, align 8
  %iParent10 = getelementptr inbounds i8, ptr %5, i64 1120
  store i64 %idxprom14, ptr %iParent10, align 8
  br i1 %cmp12.not, label %if.then.if.end_crit_edge, label %if.then13

if.then.if.end_crit_edge:                         ; preds = %if.then
  %a433.phi.trans.insert = getelementptr inbounds i8, ptr %5, i64 1068
  %.pre = load float, ptr %a433.phi.trans.insert, align 4
  %b436.phi.trans.insert = getelementptr inbounds i8, ptr %5, i64 1084
  %.pre58 = load float, ptr %b436.phi.trans.insert, align 4
  %c440.phi.trans.insert = getelementptr inbounds i8, ptr %5, i64 1100
  %.pre59 = load float, ptr %c440.phi.trans.insert, align 4
  br label %if.end

if.then13:                                        ; preds = %if.then
  %6 = load ptr, ptr %arrayidx15, align 8
  %vPosition = getelementptr inbounds i8, ptr %6, i64 1128
  %7 = load float, ptr %vPosition, align 8
  %fneg = fneg float %7
  %a4 = getelementptr inbounds i8, ptr %5, i64 1068
  store float %fneg, ptr %a4, align 4
  %y = getelementptr inbounds i8, ptr %6, i64 1132
  %8 = load float, ptr %y, align 4
  %fneg17 = fneg float %8
  %b4 = getelementptr inbounds i8, ptr %5, i64 1084
  store float %fneg17, ptr %b4, align 4
  %z = getelementptr inbounds i8, ptr %6, i64 1136
  %9 = load float, ptr %z, align 8
  %fneg20 = fneg float %9
  %c4 = getelementptr inbounds i8, ptr %5, i64 1100
  store float %fneg20, ptr %c4, align 4
  br label %if.end

if.end:                                           ; preds = %if.then.if.end_crit_edge, %if.then13
  %10 = phi float [ %.pre59, %if.then.if.end_crit_edge ], [ %fneg20, %if.then13 ]
  %11 = phi float [ %.pre58, %if.then.if.end_crit_edge ], [ %fneg17, %if.then13 ]
  %12 = phi float [ %.pre, %if.then.if.end_crit_edge ], [ %fneg, %if.then13 ]
  %x22 = getelementptr inbounds i8, ptr %add.ptr4, i64 4
  %13 = load float, ptr %x22, align 1
  %vPosition23 = getelementptr inbounds i8, ptr %5, i64 1128
  store float %13, ptr %vPosition23, align 8
  %y25 = getelementptr inbounds i8, ptr %add.ptr4, i64 8
  %14 = load float, ptr %y25, align 1
  %y27 = getelementptr inbounds i8, ptr %5, i64 1132
  store float %14, ptr %y27, align 4
  %z28 = getelementptr inbounds i8, ptr %add.ptr4, i64 12
  %15 = load float, ptr %z28, align 1
  %z30 = getelementptr inbounds i8, ptr %5, i64 1136
  store float %15, ptr %z30, align 8
  %16 = load float, ptr %x22, align 1
  %a433 = getelementptr inbounds i8, ptr %5, i64 1068
  %sub = fsub float %12, %16
  store float %sub, ptr %a433, align 4
  %17 = load float, ptr %y25, align 1
  %b436 = getelementptr inbounds i8, ptr %5, i64 1084
  %sub37 = fsub float %11, %17
  store float %sub37, ptr %b436, align 4
  %18 = load float, ptr %z28, align 1
  %c440 = getelementptr inbounds i8, ptr %5, i64 1100
  %sub41 = fsub float %10, %18
  store float %sub41, ptr %c440, align 4
  %19 = load i16, ptr %bone_stc_size, align 1
  %cmp44 = icmp eq i16 %19, 16
  br i1 %cmp44, label %if.then45, label %if.else

if.then45:                                        ; preds = %if.end
  %data = getelementptr inbounds i8, ptr %5, i64 4
  %call = tail call i32 (ptr, i64, ptr, ...) @snprintf(ptr noundef nonnull dereferenceable(1) %data, i64 noundef 1024, ptr noundef nonnull @.str.69, i32 noundef %3) #24
  store i32 %call, ptr %5, align 8
  br label %for.inc76

if.else:                                          ; preds = %if.end
  %conv43 = zext i16 %19 to i32
  %sub49 = add nsw i32 %conv43, -16
  %name = getelementptr inbounds i8, ptr %add.ptr4, i64 16
  %cmp5145.not = icmp eq i32 %sub49, 0
  br i1 %cmp5145.not, label %for.end, label %for.body52.preheader

for.body52.preheader:                             ; preds = %if.else
  %wide.trip.count = zext i32 %sub49 to i64
  br label %for.body52

for.body52:                                       ; preds = %for.body52.preheader, %for.inc
  %indvars.iv = phi i64 [ 0, %for.body52.preheader ], [ %indvars.iv.next, %for.inc ]
  %arrayidx54 = getelementptr inbounds [1 x i8], ptr %name, i64 0, i64 %indvars.iv
  %20 = load i8, ptr %arrayidx54, align 1
  %tobool.not = icmp eq i8 %20, 0
  br i1 %tobool.not, label %for.end.loopexit.split.loop.exit, label %for.inc

for.inc:                                          ; preds = %for.body52
  %indvars.iv.next = add nuw nsw i64 %indvars.iv, 1
  %exitcond.not = icmp eq i64 %indvars.iv.next, %wide.trip.count
  br i1 %exitcond.not, label %for.end, label %for.body52, !llvm.loop !32

for.end.loopexit.split.loop.exit:                 ; preds = %for.body52
  %21 = trunc i64 %indvars.iv to i32
  br label %for.end

for.end:                                          ; preds = %for.inc, %for.end.loopexit.split.loop.exit, %if.else
  %iMaxLen.0 = phi i32 [ 0, %if.else ], [ %21, %for.end.loopexit.split.loop.exit ], [ %sub49, %for.inc ]
  store i32 %iMaxLen.0, ptr %5, align 8
  %data61 = getelementptr inbounds i8, ptr %5, i64 4
  %conv67 = zext i32 %iMaxLen.0 to i64
  tail call void @llvm.memcpy.p0.p0.i64(ptr nonnull align 4 %data61, ptr nonnull align 1 %name, i64 %conv67, i1 false)
  %arrayidx73 = getelementptr inbounds [1024 x i8], ptr %data61, i64 0, i64 %conv67
  store i8 0, ptr %arrayidx73, align 1
  br label %for.inc76

for.inc76:                                        ; preds = %for.body, %for.end, %if.then45
  %indvars.iv.next56 = add nuw nsw i64 %indvars.iv55, 1
  %22 = load i32, ptr %bones_num, align 1
  %23 = zext i32 %22 to i64
  %cmp3 = icmp ult i64 %indvars.iv.next56, %23
  br i1 %cmp3, label %for.body, label %for.end78, !llvm.loop !33

for.end78:                                        ; preds = %for.inc76
  %inc79 = add i16 %iParent.051, 1
  %inc = add i32 %inc52, 1
  %cmp = icmp ult i32 %inc52, %22
  br i1 %cmp, label %for.body.lr.ph, label %while.end, !llvm.loop !34

while.end:                                        ; preds = %for.end78, %entry
  ret void
}